; Function Attrs: mustprogress uwtable
define hidden noundef i32 @_ZN2cv12FilterEngine5startERKNS_3MatERKNS_5Size_IiEERKNS_6Point_IiEE(ptr noundef nonnull align 8 dereferenceable(304) %0, ptr noundef nonnull align 8 dereferenceable(96) %1, ptr noundef nonnull align 4 dereferenceable(8) %2, ptr noundef nonnull align 4 dereferenceable(8) %3) unnamed_addr #3 align 2 personality ptr @__gxx_personality_v0 {
  %5 = alloca %"class.cv::utils::trace::details::Region", align 8
  %6 = alloca %"class.std::__cxx11::basic_string", align 8
  %7 = alloca %"class.std::allocator.18", align 1
  %8 = alloca %"class.std::__cxx11::basic_string", align 8
  %9 = alloca %"class.std::allocator.18", align 1
  %10 = alloca %"class.cv::Size_", align 8
  call void @_ZN2cv5utils5trace7details6RegionC1ERKNS3_21LocationStaticStorageE(ptr noundef nonnull align 8 dereferenceable(12) %5, ptr noundef nonnull align 8 dereferenceable(32) @_ZZN2cv12FilterEngine5startERKNS_3MatERKNS_5Size_IiEERKNS_6Point_IiEEE25__cv_trace_location_fn180)
  %11 = invoke noundef zeroext i1 @_ZNK2cv3Mat5emptyEv(ptr noundef nonnull align 8 dereferenceable(96) %1)
          to label %12 unwind label %13

12:                                               ; preds = %4
  br i1 %11, label %15, label %23

13:                                               ; preds = %38, %4
  %14 = landingpad { ptr, i32 }
          cleanup
  br label %60

15:                                               ; preds = %12
  call void @_ZNSaIcEC1Ev(ptr noundef nonnull align 1 dereferenceable(1) %7) #25
  invoke void @_ZNSt7__cxx1112basic_stringIcSt11char_traitsIcESaIcEEC1EPKcRKS3_(ptr noundef nonnull align 8 dereferenceable(32) %6, ptr noundef nonnull @.str.27, ptr noundef nonnull align 1 dereferenceable(1) %7)
          to label %16 unwind label %18

16:                                               ; preds = %15
  invoke void @_ZN2cv5errorEiRKNSt7__cxx1112basic_stringIcSt11char_traitsIcESaIcEEEPKcS9_i(i32 noundef -215, ptr noundef nonnull align 8 dereferenceable(32) %6, ptr noundef nonnull @__func__._ZN2cv12FilterEngine5startERKNS_5Size_IiEES4_RKNS_6Point_IiEE, ptr noundef nonnull @.str.19, i32 noundef 182) #26
          to label %17 unwind label %20

17:                                               ; preds = %16
  unreachable

18:                                               ; preds = %15
  %19 = landingpad { ptr, i32 }
          cleanup
  br label %22

20:                                               ; preds = %16
  %21 = landingpad { ptr, i32 }
          cleanup
  call void @_ZNSt7__cxx1112basic_stringIcSt11char_traitsIcESaIcEED1Ev(ptr noundef nonnull align 8 dereferenceable(32) %6) #25
  br label %22

22:                                               ; preds = %20, %18
  %.pn12 = phi { ptr, i32 } [ %21, %20 ], [ %19, %18 ]
  call void @_ZNSaIcED1Ev(ptr noundef nonnull align 1 dereferenceable(1) %7) #25
  br label %60

23:                                               ; preds = %12
  %24 = load i32, ptr %2, align 4
  %25 = icmp slt i32 %24, 1
  %26 = getelementptr inbounds i8, ptr %2, i64 4
  %27 = load i32, ptr %26, align 4
  %28 = icmp slt i32 %27, 1
  %29 = select i1 %25, i1 true, i1 %28
  br i1 %29, label %30, label %38

30:                                               ; preds = %23
  call void @_ZNSaIcEC1Ev(ptr noundef nonnull align 1 dereferenceable(1) %9) #25
  invoke void @_ZNSt7__cxx1112basic_stringIcSt11char_traitsIcESaIcEEC1EPKcRKS3_(ptr noundef nonnull align 8 dereferenceable(32) %8, ptr noundef nonnull @.str.28, ptr noundef nonnull align 1 dereferenceable(1) %9)
          to label %31 unwind label %33

31:                                               ; preds = %30
  invoke void @_ZN2cv5errorEiRKNSt7__cxx1112basic_stringIcSt11char_traitsIcESaIcEEEPKcS9_i(i32 noundef -215, ptr noundef nonnull align 8 dereferenceable(32) %8, ptr noundef nonnull @__func__._ZN2cv12FilterEngine5startERKNS_5Size_IiEES4_RKNS_6Point_IiEE, ptr noundef nonnull @.str.19, i32 noundef 183) #26
          to label %32 unwind label %35

32:                                               ; preds = %31
  unreachable

33:                                               ; preds = %30
  %34 = landingpad { ptr, i32 }
          cleanup
  br label %37

35:                                               ; preds = %31
  %36 = landingpad { ptr, i32 }
          cleanup
  call void @_ZNSt7__cxx1112basic_stringIcSt11char_traitsIcESaIcEED1Ev(ptr noundef nonnull align 8 dereferenceable(32) %8) #25
  br label %37

37:                                               ; preds = %35, %33
  %.pn = phi { ptr, i32 } [ %36, %35 ], [ %34, %33 ]
  call void @_ZNSaIcED1Ev(ptr noundef nonnull align 1 dereferenceable(1) %9) #25
  br label %60

38:                                               ; preds = %23
  %39 = getelementptr inbounds i8, ptr %1, i64 64
  %40 = load ptr, ptr %39, align 8
  %41 = getelementptr inbounds i8, ptr %40, i64 4
  %42 = load i32, ptr %41, align 4
  %43 = load i32, ptr %40, align 4
  %.sroa.2.0.insert.ext.i = zext i32 %43 to i64
  %.sroa.2.0.insert.shift.i = shl nuw i64 %.sroa.2.0.insert.ext.i, 32
  %.sroa.0.0.insert.ext.i = zext i32 %42 to i64
  %.sroa.0.0.insert.insert.i = or disjoint i64 %.sroa.2.0.insert.shift.i, %.sroa.0.0.insert.ext.i
  store i64 %.sroa.0.0.insert.insert.i, ptr %10, align 8
  %44 = load ptr, ptr %0, align 8
  %45 = getelementptr inbounds i8, ptr %44, i64 16
  %46 = load ptr, ptr %45, align 8
  %47 = invoke noundef i32 %46(ptr noundef nonnull align 8 dereferenceable(304) %0, ptr noundef nonnull align 4 dereferenceable(8) %2, ptr noundef nonnull align 4 dereferenceable(8) %10, ptr noundef nonnull align 4 dereferenceable(8) %3)
          to label %48 unwind label %13

48:                                               ; preds = %38
  %49 = getelementptr inbounds i8, ptr %0, i64 212
  %50 = load i32, ptr %49, align 4
  %51 = getelementptr inbounds i8, ptr %3, i64 4
  %52 = load i32, ptr %51, align 4
  %53 = getelementptr inbounds i8, ptr %5, i64 8
  %54 = load i32, ptr %53, align 8
  %.not.i = icmp eq i32 %54, 0
  br i1 %.not.i, label %_ZN2cv5utils5trace7details6RegionD2Ev.exit, label %55

55:                                               ; preds = %48
  invoke void @_ZN2cv5utils5trace7details6Region7destroyEv(ptr noundef nonnull align 8 dereferenceable(12) %5)
          to label %_ZN2cv5utils5trace7details6RegionD2Ev.exit unwind label %56

56:                                               ; preds = %55
  %57 = landingpad { ptr, i32 }
          catch ptr null
  %58 = extractvalue { ptr, i32 } %57, 0
  call void @__clang_call_terminate(ptr %58) #27
  unreachable

_ZN2cv5utils5trace7details6RegionD2Ev.exit:       ; preds = %48, %55
  %59 = sub nsw i32 %50, %52
  ret i32 %59

60:                                               ; preds = %37, %22, %13
  %.pn12.pn = phi { ptr, i32 } [ %.pn12, %22 ], [ %.pn, %37 ], [ %14, %13 ]
  call void @_ZN2cv5utils5trace7details6RegionD2Ev(ptr noundef nonnull align 8 dereferenceable(12) %5) #25
  resume { ptr, i32 } %.pn12.pn
}